target datalayout = "e-m:e-p270:32:32-p271:32:32-p272:64:64-i64:64-i128:128-f80:128-n8:16:32:64-S128"
target triple = "x86_64-pc-linux-gnu"

@.str.14 = private unnamed_addr constant [23 x i8] c"PCRE2 (error querying)\00", align 1
@.str.15 = private unnamed_addr constant [9 x i8] c"PCRE2 %s\00", align 1

; Function Attrs: null_pointer_is_valid sspstrong uwtable
define void @gather_pcre2_runtime_info(ptr noundef %0) #0 {
  %2 = alloca ptr, align 8
  %3 = alloca i32, align 4
  %4 = alloca ptr, align 8
  %5 = alloca i32, align 4
  store ptr %0, ptr %2, align 8
  call void @llvm.lifetime.start.p0(i64 4, ptr %3) #8
  call void @llvm.lifetime.start.p0(i64 8, ptr %4) #8
  %6 = call i32 @pcre2_config_8(i32 noundef 11, ptr noundef null)
  store i32 %6, ptr %3, align 4
  %7 = load i32, ptr %3, align 4
  %8 = icmp slt i32 %7, 0
  br i1 %8, label %12, label %9

9:                                                ; preds = %1
  %10 = load i32, ptr %3, align 4
  %11 = icmp sgt i32 %10, 255
  br i1 %11, label %12, label %14

12:                                               ; preds = %9, %1
  %13 = load ptr, ptr %2, align 8
  call void (ptr, ptr, ...) @without_feature(ptr noundef %13, ptr noundef @.str.14)
  store i32 1, ptr %5, align 4
  br label %28

14:                                               ; preds = %9
  %15 = load i32, ptr %3, align 4
  %16 = add i32 %15, 1
  %17 = sext i32 %16 to i64
  %18 = call noalias ptr @g_malloc(i64 noundef %17) #11
  store ptr %18, ptr %4, align 8
  %19 = load ptr, ptr %4, align 8
  %20 = call i32 @pcre2_config_8(i32 noundef 11, ptr noundef %19)
  %21 = load ptr, ptr %4, align 8
  %22 = load i32, ptr %3, align 4
  %23 = sext i32 %22 to i64
  %24 = getelementptr i8, ptr %21, i64 %23
  store i8 0, ptr %24, align 1
  %25 = load ptr, ptr %2, align 8
  %26 = load ptr, ptr %4, align 8
  call void (ptr, ptr, ...) @with_feature(ptr noundef %25, ptr noundef @.str.15, ptr noundef %26)
  %27 = load ptr, ptr %4, align 8
  call void @g_free(ptr noundef %27)
  store i32 0, ptr %5, align 4
  br label %28

28:                                               ; preds = %14, %12
  call void @llvm.lifetime.end.p0(i64 8, ptr %4) #8
  call void @llvm.lifetime.end.p0(i64 4, ptr %3) #8
  %29 = load i32, ptr %5, align 4
  switch i32 %29, label %31 [
    i32 0, label %30
    i32 1, label %30
  ]

30:                                               ; preds = %28, %28
  ret void

31:                                               ; preds = %28
  unreachable
}