; Function Attrs: null_pointer_is_valid sspstrong uwtable
define void @gather_pcre2_runtime_info(ptr noundef %0) local_unnamed_addr #0 {
  %2 = tail call i32 @pcre2_config_8(i32 noundef 11, ptr noundef null)
  %or.cond = icmp ugt i32 %2, 255
  br i1 %or.cond, label %3, label %4

3:                                                ; preds = %1
  tail call void (ptr, ptr, ...) @without_feature(ptr noundef %0, ptr noundef nonnull @.str.14)
  br label %11

4:                                                ; preds = %1
  %5 = add nuw nsw i32 %2, 1
  %6 = zext nneg i32 %5 to i64
  %7 = tail call noalias ptr @g_malloc(i64 noundef %6) #13
  %8 = tail call i32 @pcre2_config_8(i32 noundef 11, ptr noundef %7)
  %9 = zext nneg i32 %2 to i64
  %10 = getelementptr i8, ptr %7, i64 %9
  store i8 0, ptr %10, align 1
  tail call void (ptr, ptr, ...) @with_feature(ptr noundef %0, ptr noundef nonnull @.str.15, ptr noundef %7)
  tail call void @g_free(ptr noundef %7)
  br label %11

11:                                               ; preds = %4, %3
  ret void
}